; Function Attrs: nounwind uwtable
define internal void @start_output_gif(ptr noundef readonly captures(none) %0, ptr noundef captures(none) %1) #0 {
  %3 = getelementptr inbounds nuw i8, ptr %0, i64 108
  %4 = load i32, ptr %3, align 4, !tbaa !51
  %.not = icmp eq i32 %4, 0
  br i1 %.not, label %10, label %5

5:                                                ; preds = %2
  %6 = getelementptr inbounds nuw i8, ptr %0, i64 156
  %7 = load i32, ptr %6, align 4, !tbaa !62
  %8 = getelementptr inbounds nuw i8, ptr %0, i64 160
  %9 = load ptr, ptr %8, align 8, !tbaa !63
  tail call fastcc void @emit_header(ptr noundef %1, i32 noundef %7, ptr noundef %9)
  br label %11

10:                                               ; preds = %2
  tail call fastcc void @emit_header(ptr noundef %1, i32 noundef 256, ptr noundef null)
  br label %11

11:                                               ; preds = %10, %5
  ret void
}